target datalayout = "e-m:e-p270:32:32-p271:32:32-p272:64:64-i64:64-i128:128-f80:128-n8:16:32:64-S128"
target triple = "x86_64-pc-linux-gnu"

%struct.SDL_HashTable = type { ptr, ptr, ptr, ptr, ptr, ptr, i32, i32, i32 }
%struct.SDL_HashItem = type { ptr, ptr, i32, i32 }

@.str = private unnamed_addr constant [26 x i8] c"Parameter '%s' is invalid\00", align 1
@.str.1 = private unnamed_addr constant [6 x i8] c"table\00", align 1

; Function Attrs: nounwind uwtable
define internal ptr @find_item(ptr noundef %0, ptr noundef %1, i32 noundef %2, ptr noundef %3, ptr noundef %4) #0 {
  %6 = alloca ptr, align 8
  %7 = alloca ptr, align 8
  %8 = alloca ptr, align 8
  %9 = alloca i32, align 4
  %10 = alloca ptr, align 8
  %11 = alloca ptr, align 8
  %12 = alloca i32, align 4
  %13 = alloca i32, align 4
  %14 = alloca ptr, align 8
  %15 = alloca ptr, align 8
  %16 = alloca i32, align 4
  %17 = alloca i32, align 4
  %18 = alloca i32, align 4
  store ptr %0, ptr %7, align 8
  store ptr %1, ptr %8, align 8
  store i32 %2, ptr %9, align 4
  store ptr %3, ptr %10, align 8
  store ptr %4, ptr %11, align 8
  call void @llvm.lifetime.start.p0(i64 4, ptr %12) #9
  %19 = load ptr, ptr %7, align 8
  %20 = getelementptr inbounds nuw %struct.SDL_HashTable, ptr %19, i32 0, i32 6
  %21 = load i32, ptr %20, align 8
  store i32 %21, ptr %12, align 4
  call void @llvm.lifetime.start.p0(i64 4, ptr %13) #9
  %22 = load ptr, ptr %7, align 8
  %23 = getelementptr inbounds nuw %struct.SDL_HashTable, ptr %22, i32 0, i32 7
  %24 = load i32, ptr %23, align 4
  store i32 %24, ptr %13, align 4
  call void @llvm.lifetime.start.p0(i64 8, ptr %14) #9
  %25 = load ptr, ptr %7, align 8
  %26 = getelementptr inbounds nuw %struct.SDL_HashTable, ptr %25, i32 0, i32 1
  %27 = load ptr, ptr %26, align 8
  store ptr %27, ptr %14, align 8
  br label %28

28:                                               ; preds = %92, %5
  br label %29

29:                                               ; preds = %28
  call void @llvm.lifetime.start.p0(i64 8, ptr %15) #9
  %30 = load ptr, ptr %14, align 8
  %31 = load ptr, ptr %10, align 8
  %32 = load i32, ptr %31, align 4
  %33 = zext i32 %32 to i64
  %34 = getelementptr inbounds nuw %struct.SDL_HashItem, ptr %30, i64 %33
  store ptr %34, ptr %15, align 8
  call void @llvm.lifetime.start.p0(i64 4, ptr %16) #9
  %35 = load ptr, ptr %15, align 8
  %36 = getelementptr inbounds nuw %struct.SDL_HashItem, ptr %35, i32 0, i32 2
  %37 = load i32, ptr %36, align 8
  store i32 %37, ptr %16, align 4
  %38 = load ptr, ptr %15, align 8
  %39 = getelementptr inbounds nuw %struct.SDL_HashItem, ptr %38, i32 0, i32 3
  %40 = load i32, ptr %39, align 4
  %41 = lshr i32 %40, 31
  %42 = icmp ne i32 %41, 0
  br i1 %42, label %44, label %43

43:                                               ; preds = %29
  store ptr null, ptr %6, align 8
  store i32 1, ptr %17, align 4
  br label %90

44:                                               ; preds = %29
  %45 = load i32, ptr %16, align 4
  %46 = load i32, ptr %9, align 4
  %47 = icmp eq i32 %45, %46
  br i1 %47, label %48, label %62

48:                                               ; preds = %44
  %49 = load ptr, ptr %7, align 8
  %50 = getelementptr inbounds nuw %struct.SDL_HashTable, ptr %49, i32 0, i32 3
  %51 = load ptr, ptr %50, align 8
  %52 = load ptr, ptr %7, align 8
  %53 = getelementptr inbounds nuw %struct.SDL_HashTable, ptr %52, i32 0, i32 5
  %54 = load ptr, ptr %53, align 8
  %55 = load ptr, ptr %15, align 8
  %56 = getelementptr inbounds nuw %struct.SDL_HashItem, ptr %55, i32 0, i32 0
  %57 = load ptr, ptr %56, align 8
  %58 = load ptr, ptr %8, align 8
  %59 = call zeroext i1 %51(ptr noundef %54, ptr noundef %57, ptr noundef %58)
  br i1 %59, label %60, label %62

60:                                               ; preds = %48
  %61 = load ptr, ptr %15, align 8
  store ptr %61, ptr %6, align 8
  store i32 1, ptr %17, align 4
  br label %90

62:                                               ; preds = %48, %44
  call void @llvm.lifetime.start.p0(i64 4, ptr %18) #9
  %63 = load ptr, ptr %15, align 8
  %64 = getelementptr inbounds nuw %struct.SDL_HashItem, ptr %63, i32 0, i32 3
  %65 = load i32, ptr %64, align 4
  %66 = and i32 %65, 2147483647
  store i32 %66, ptr %18, align 4
  br label %67

67:                                               ; preds = %62
  br label %68

68:                                               ; preds = %67
  br label %69

69:                                               ; preds = %68
  %70 = load ptr, ptr %11, align 8
  %71 = load i32, ptr %70, align 4
  %72 = load i32, ptr %18, align 4
  %73 = icmp ugt i32 %71, %72
  br i1 %73, label %74, label %75

74:                                               ; preds = %69
  store ptr null, ptr %6, align 8
  store i32 1, ptr %17, align 4
  br label %89

75:                                               ; preds = %69
  %76 = load ptr, ptr %11, align 8
  %77 = load i32, ptr %76, align 4
  %78 = add i32 %77, 1
  store i32 %78, ptr %76, align 4
  %79 = load i32, ptr %13, align 4
  %80 = icmp ugt i32 %78, %79
  br i1 %80, label %81, label %82

81:                                               ; preds = %75
  store ptr null, ptr %6, align 8
  store i32 1, ptr %17, align 4
  br label %89

82:                                               ; preds = %75
  %83 = load ptr, ptr %10, align 8
  %84 = load i32, ptr %83, align 4
  %85 = add i32 %84, 1
  %86 = load i32, ptr %12, align 4
  %87 = and i32 %85, %86
  %88 = load ptr, ptr %10, align 8
  store i32 %87, ptr %88, align 4
  store i32 0, ptr %17, align 4
  br label %89

89:                                               ; preds = %82, %81, %74
  call void @llvm.lifetime.end.p0(i64 4, ptr %18) #9
  br label %90

90:                                               ; preds = %89, %60, %43
  call void @llvm.lifetime.end.p0(i64 4, ptr %16) #9
  call void @llvm.lifetime.end.p0(i64 8, ptr %15) #9
  %91 = load i32, ptr %17, align 4
  switch i32 %91, label %93 [
    i32 0, label %92
  ]

92:                                               ; preds = %90
  br label %28

93:                                               ; preds = %90
  call void @llvm.lifetime.end.p0(i64 8, ptr %14) #9
  call void @llvm.lifetime.end.p0(i64 4, ptr %13) #9
  call void @llvm.lifetime.end.p0(i64 4, ptr %12) #9
  %94 = load ptr, ptr %6, align 8
  ret ptr %94
}

; Function Attrs: nounwind uwtable
define internal void @delete_item(ptr noundef %0, ptr noundef %1) #0 {
  %3 = alloca ptr, align 8
  %4 = alloca ptr, align 8
  %5 = alloca i32, align 4
  %6 = alloca ptr, align 8
  %7 = alloca i32, align 4
  %8 = alloca ptr, align 8
  %9 = alloca i32, align 4
  store ptr %0, ptr %3, align 8
  store ptr %1, ptr %4, align 8
  call void @llvm.lifetime.start.p0(i64 4, ptr %5) #9
  %10 = load ptr, ptr %3, align 8
  %11 = getelementptr inbounds nuw %struct.SDL_HashTable, ptr %10, i32 0, i32 6
  %12 = load i32, ptr %11, align 8
  store i32 %12, ptr %5, align 4
  call void @llvm.lifetime.start.p0(i64 8, ptr %6) #9
  %13 = load ptr, ptr %3, align 8
  %14 = getelementptr inbounds nuw %struct.SDL_HashTable, ptr %13, i32 0, i32 1
  %15 = load ptr, ptr %14, align 8
  store ptr %15, ptr %6, align 8
  %16 = load ptr, ptr %3, align 8
  %17 = getelementptr inbounds nuw %struct.SDL_HashTable, ptr %16, i32 0, i32 4
  %18 = load ptr, ptr %17, align 8
  %19 = icmp ne ptr %18, null
  br i1 %19, label %20, label %33

20:                                               ; preds = %2
  %21 = load ptr, ptr %3, align 8
  %22 = getelementptr inbounds nuw %struct.SDL_HashTable, ptr %21, i32 0, i32 4
  %23 = load ptr, ptr %22, align 8
  %24 = load ptr, ptr %3, align 8
  %25 = getelementptr inbounds nuw %struct.SDL_HashTable, ptr %24, i32 0, i32 5
  %26 = load ptr, ptr %25, align 8
  %27 = load ptr, ptr %4, align 8
  %28 = getelementptr inbounds nuw %struct.SDL_HashItem, ptr %27, i32 0, i32 0
  %29 = load ptr, ptr %28, align 8
  %30 = load ptr, ptr %4, align 8
  %31 = getelementptr inbounds nuw %struct.SDL_HashItem, ptr %30, i32 0, i32 1
  %32 = load ptr, ptr %31, align 8
  call void %23(ptr noundef %26, ptr noundef %29, ptr noundef %32)
  br label %33

33:                                               ; preds = %20, %2
  br label %34

34:                                               ; preds = %33
  br label %35

35:                                               ; preds = %34
  br label %36

36:                                               ; preds = %35
  %37 = load ptr, ptr %3, align 8
  %38 = getelementptr inbounds nuw %struct.SDL_HashTable, ptr %37, i32 0, i32 8
  %39 = load i32, ptr %38, align 8
  %40 = add i32 %39, -1
  store i32 %40, ptr %38, align 8
  call void @llvm.lifetime.start.p0(i64 4, ptr %7) #9
  %41 = load ptr, ptr %4, align 8
  %42 = load ptr, ptr %3, align 8
  %43 = getelementptr inbounds nuw %struct.SDL_HashTable, ptr %42, i32 0, i32 1
  %44 = load ptr, ptr %43, align 8
  %45 = ptrtoint ptr %41 to i64
  %46 = ptrtoint ptr %44 to i64
  %47 = sub i64 %45, %46
  %48 = sdiv exact i64 %47, 24
  %49 = trunc i64 %48 to i32
  store i32 %49, ptr %7, align 4
  br label %50

50:                                               ; preds = %85, %36
  br label %51

51:                                               ; preds = %50
  %52 = load i32, ptr %7, align 4
  %53 = add i32 %52, 1
  %54 = load i32, ptr %5, align 4
  %55 = and i32 %53, %54
  store i32 %55, ptr %7, align 4
  call void @llvm.lifetime.start.p0(i64 8, ptr %8) #9
  %56 = load ptr, ptr %6, align 8
  %57 = load i32, ptr %7, align 4
  %58 = zext i32 %57 to i64
  %59 = getelementptr inbounds nuw %struct.SDL_HashItem, ptr %56, i64 %58
  store ptr %59, ptr %8, align 8
  %60 = load ptr, ptr %8, align 8
  %61 = getelementptr inbounds nuw %struct.SDL_HashItem, ptr %60, i32 0, i32 3
  %62 = load i32, ptr %61, align 4
  %63 = and i32 %62, 2147483647
  %64 = icmp slt i32 %63, 1
  br i1 %64, label %65, label %67

65:                                               ; preds = %51
  %66 = load ptr, ptr %4, align 8
  call void @llvm.memset.p0.i64(ptr align 8 %66, i8 0, i64 24, i1 false)
  store i32 1, ptr %9, align 4
  br label %83

67:                                               ; preds = %51
  %68 = load ptr, ptr %4, align 8
  %69 = load ptr, ptr %8, align 8
  call void @llvm.memcpy.p0.p0.i64(ptr align 8 %68, ptr align 8 %69, i64 24, i1 false)
  %70 = load ptr, ptr %4, align 8
  %71 = getelementptr inbounds nuw %struct.SDL_HashItem, ptr %70, i32 0, i32 3
  %72 = load i32, ptr %71, align 4
  %73 = and i32 %72, 2147483647
  %74 = sub nsw i32 %73, 1
  %75 = load i32, ptr %71, align 4
  %76 = and i32 %74, 2147483647
  %77 = and i32 %75, -2147483648
  %78 = or i32 %77, %76
  store i32 %78, ptr %71, align 4
  br label %79

79:                                               ; preds = %67
  br label %80

80:                                               ; preds = %79
  br label %81

81:                                               ; preds = %80
  %82 = load ptr, ptr %8, align 8
  store ptr %82, ptr %4, align 8
  store i32 0, ptr %9, align 4
  br label %83

83:                                               ; preds = %81, %65
  call void @llvm.lifetime.end.p0(i64 8, ptr %8) #9
  %84 = load i32, ptr %9, align 4
  switch i32 %84, label %86 [
    i32 0, label %85
  ]

85:                                               ; preds = %83
  br label %50

86:                                               ; preds = %83
  call void @llvm.lifetime.end.p0(i64 4, ptr %7) #9
  call void @llvm.lifetime.end.p0(i64 8, ptr %6) #9
  call void @llvm.lifetime.end.p0(i64 4, ptr %5) #9
  ret void
}

; Function Attrs: nounwind uwtable
define internal ptr @find_first_item(ptr noundef %0, ptr noundef %1, i32 noundef %2) #0 {
  %4 = alloca ptr, align 8
  %5 = alloca ptr, align 8
  %6 = alloca i32, align 4
  %7 = alloca i32, align 4
  %8 = alloca i32, align 4
  store ptr %0, ptr %4, align 8
  store ptr %1, ptr %5, align 8
  store i32 %2, ptr %6, align 4
  call void @llvm.lifetime.start.p0(i64 4, ptr %7) #9
  %9 = load i32, ptr %6, align 4
  %10 = load ptr, ptr %4, align 8
  %11 = getelementptr inbounds nuw %struct.SDL_HashTable, ptr %10, i32 0, i32 6
  %12 = load i32, ptr %11, align 8
  %13 = and i32 %9, %12
  store i32 %13, ptr %7, align 4
  call void @llvm.lifetime.start.p0(i64 4, ptr %8) #9
  store i32 0, ptr %8, align 4
  %14 = load ptr, ptr %4, align 8
  %15 = load ptr, ptr %5, align 8
  %16 = load i32, ptr %6, align 4
  %17 = call ptr @find_item(ptr noundef %14, ptr noundef %15, i32 noundef %16, ptr noundef %7, ptr noundef %8)
  call void @llvm.lifetime.end.p0(i64 4, ptr %8) #9
  call void @llvm.lifetime.end.p0(i64 4, ptr %7) #9
  ret ptr %17
}

; Function Attrs: inlinehint nounwind uwtable
define internal i32 @calc_hash(ptr noundef %0, ptr noundef %1) #4 {
  %3 = alloca ptr, align 8
  %4 = alloca ptr, align 8
  %5 = alloca i32, align 4
  store ptr %0, ptr %3, align 8
  store ptr %1, ptr %4, align 8
  call void @llvm.lifetime.start.p0(i64 4, ptr %5) #9
  store i32 -1640531535, ptr %5, align 4
  %6 = load ptr, ptr %3, align 8
  %7 = getelementptr inbounds nuw %struct.SDL_HashTable, ptr %6, i32 0, i32 2
  %8 = load ptr, ptr %7, align 8
  %9 = load ptr, ptr %3, align 8
  %10 = getelementptr inbounds nuw %struct.SDL_HashTable, ptr %9, i32 0, i32 5
  %11 = load ptr, ptr %10, align 8
  %12 = load ptr, ptr %4, align 8
  %13 = call i32 %8(ptr noundef %11, ptr noundef %12)
  %14 = mul i32 %13, -1640531535
  call void @llvm.lifetime.end.p0(i64 4, ptr %5) #9
  ret i32 %14
}

; Function Attrs: nounwind uwtable
define hidden zeroext i1 @SDL_RemoveFromHashTable(ptr noundef %0, ptr noundef %1) #0 {
  %3 = alloca i1, align 1
  %4 = alloca ptr, align 8
  %5 = alloca ptr, align 8
  %6 = alloca i8, align 1
  %7 = alloca i32, align 4
  %8 = alloca ptr, align 8
  store ptr %0, ptr %4, align 8
  store ptr %1, ptr %5, align 8
  %9 = load ptr, ptr %4, align 8
  %10 = icmp ne ptr %9, null
  br i1 %10, label %13, label %11

11:                                               ; preds = %2
  %12 = call zeroext i1 (ptr, ...) @SDL_SetError_REAL(ptr noundef @.str, ptr noundef @.str.1)
  store i1 %12, ptr %3, align 1
  br label %35

13:                                               ; preds = %2
  %14 = load ptr, ptr %4, align 8
  %15 = getelementptr inbounds nuw %struct.SDL_HashTable, ptr %14, i32 0, i32 0
  %16 = load ptr, ptr %15, align 8
  call void @SDL_LockRWLockForWriting_REAL(ptr noundef %16)
  call void @llvm.lifetime.start.p0(i64 1, ptr %6) #9
  store i8 0, ptr %6, align 1
  call void @llvm.lifetime.start.p0(i64 4, ptr %7) #9
  %17 = load ptr, ptr %4, align 8
  %18 = load ptr, ptr %5, align 8
  %19 = call i32 @calc_hash(ptr noundef %17, ptr noundef %18)
  store i32 %19, ptr %7, align 4
  call void @llvm.lifetime.start.p0(i64 8, ptr %8) #9
  %20 = load ptr, ptr %4, align 8
  %21 = load ptr, ptr %5, align 8
  %22 = load i32, ptr %7, align 4
  %23 = call ptr @find_first_item(ptr noundef %20, ptr noundef %21, i32 noundef %22)
  store ptr %23, ptr %8, align 8
  %24 = load ptr, ptr %8, align 8
  %25 = icmp ne ptr %24, null
  br i1 %25, label %26, label %29

26:                                               ; preds = %13
  %27 = load ptr, ptr %4, align 8
  %28 = load ptr, ptr %8, align 8
  call void @delete_item(ptr noundef %27, ptr noundef %28)
  store i8 1, ptr %6, align 1
  br label %29

29:                                               ; preds = %26, %13
  %30 = load ptr, ptr %4, align 8
  %31 = getelementptr inbounds nuw %struct.SDL_HashTable, ptr %30, i32 0, i32 0
  %32 = load ptr, ptr %31, align 8
  call void @SDL_UnlockRWLock_REAL(ptr noundef %32)
  %33 = load i8, ptr %6, align 1, !range !3, !noundef !4
  %34 = trunc i8 %33 to i1
  store i1 %34, ptr %3, align 1
  call void @llvm.lifetime.end.p0(i64 8, ptr %8) #9
  call void @llvm.lifetime.end.p0(i64 4, ptr %7) #9
  call void @llvm.lifetime.end.p0(i64 1, ptr %6) #9
  br label %35

35:                                               ; preds = %29, %11
  %36 = load i1, ptr %3, align 1
  ret i1 %36
}