; Function Attrs: nounwind uwtable
define hidden zeroext i1 @SDL_RemoveFromHashTable(ptr noundef captures(address_is_null) %0, ptr noundef %1) local_unnamed_addr #0 {
  %.not = icmp eq ptr %0, null
  br i1 %.not, label %3, label %5

3:                                                ; preds = %2
  %4 = tail call zeroext i1 (ptr, ...) @SDL_SetError_REAL(ptr noundef nonnull @.str, ptr noundef nonnull @.str.1) #10
  br label %89

5:                                                ; preds = %2
  %6 = load ptr, ptr %0, align 8
  tail call void @SDL_LockRWLockForWriting_REAL(ptr noundef %6) #10
  %7 = getelementptr i8, ptr %0, i64 16
  %.val = load ptr, ptr %7, align 8
  %8 = getelementptr i8, ptr %0, i64 40
  %.val16 = load ptr, ptr %8, align 8
  %9 = tail call i32 %.val(ptr noundef %.val16, ptr noundef %1) #10
  %10 = mul i32 %9, -1640531535
  %11 = getelementptr inbounds nuw i8, ptr %0, i64 48
  %12 = load i32, ptr %11, align 8
  %13 = and i32 %12, %10
  %14 = getelementptr inbounds nuw i8, ptr %0, i64 52
  %15 = load i32, ptr %14, align 4
  %16 = getelementptr inbounds nuw i8, ptr %0, i64 8
  %17 = load ptr, ptr %16, align 8
  %18 = zext i32 %13 to i64
  %19 = getelementptr inbounds nuw %struct.SDL_HashItem, ptr %17, i64 %18
  %20 = getelementptr inbounds nuw i8, ptr %19, i64 20
  %21 = load i32, ptr %20, align 4
  %.not30.i.i = icmp sgt i32 %21, -1
  br i1 %.not30.i.i, label %find_first_item.exit.thread, label %.lr.ph.i.i

.lr.ph.i.i:                                       ; preds = %5
  %22 = getelementptr inbounds nuw i8, ptr %0, i64 24
  br label %23

23:                                               ; preds = %39, %.lr.ph.i.i
  %.06.i = phi i32 [ %13, %.lr.ph.i.i ], [ %42, %39 ]
  %.0.i = phi i32 [ 0, %.lr.ph.i.i ], [ %40, %39 ]
  %24 = phi i32 [ %21, %.lr.ph.i.i ], [ %46, %39 ]
  %25 = phi ptr [ %20, %.lr.ph.i.i ], [ %45, %39 ]
  %26 = phi ptr [ %19, %.lr.ph.i.i ], [ %44, %39 ]
  %27 = getelementptr inbounds nuw i8, ptr %26, i64 16
  %28 = load i32, ptr %27, align 8
  %29 = icmp eq i32 %28, %10
  br i1 %29, label %30, label %35

30:                                               ; preds = %23
  %31 = load ptr, ptr %22, align 8
  %32 = load ptr, ptr %8, align 8
  %33 = load ptr, ptr %26, align 8
  %34 = tail call zeroext i1 %31(ptr noundef %32, ptr noundef %33, ptr noundef %1) #10
  br i1 %34, label %find_first_item.exit, label %._crit_edge37.i.i

._crit_edge37.i.i:                                ; preds = %30
  %.pre.i.i = load i32, ptr %25, align 4
  br label %35

35:                                               ; preds = %._crit_edge37.i.i, %23
  %36 = phi i32 [ %.pre.i.i, %._crit_edge37.i.i ], [ %24, %23 ]
  %37 = and i32 %36, 2147483647
  %38 = icmp ule i32 %.0.i, %37
  %.not26.i.i = icmp ult i32 %.0.i, %15
  %or.cond.i = select i1 %38, i1 %.not26.i.i, i1 false
  br i1 %or.cond.i, label %39, label %find_first_item.exit.thread

39:                                               ; preds = %35
  %40 = add nuw i32 %.0.i, 1
  %41 = add i32 %.06.i, 1
  %42 = and i32 %41, %12
  %43 = zext i32 %42 to i64
  %44 = getelementptr inbounds nuw %struct.SDL_HashItem, ptr %17, i64 %43
  %45 = getelementptr inbounds nuw i8, ptr %44, i64 20
  %46 = load i32, ptr %45, align 4
  %.not.i.i = icmp sgt i32 %46, -1
  br i1 %.not.i.i, label %find_first_item.exit.thread, label %23

find_first_item.exit:                             ; preds = %30
  %47 = load i32, ptr %11, align 8
  %48 = load ptr, ptr %16, align 8
  %49 = getelementptr inbounds nuw i8, ptr %0, i64 32
  %50 = load ptr, ptr %49, align 8
  %.not.i = icmp eq ptr %50, null
  br i1 %.not.i, label %56, label %51

51:                                               ; preds = %find_first_item.exit
  %52 = load ptr, ptr %8, align 8
  %53 = load ptr, ptr %26, align 8
  %54 = getelementptr inbounds nuw i8, ptr %26, i64 8
  %55 = load ptr, ptr %54, align 8
  tail call void %50(ptr noundef %52, ptr noundef %53, ptr noundef %55) #10
  %.pre.i = load ptr, ptr %16, align 8
  br label %56

56:                                               ; preds = %51, %find_first_item.exit
  %57 = phi ptr [ %48, %find_first_item.exit ], [ %.pre.i, %51 ]
  %58 = getelementptr inbounds nuw i8, ptr %0, i64 56
  %59 = load i32, ptr %58, align 8
  %60 = add i32 %59, -1
  store i32 %60, ptr %58, align 8
  %61 = ptrtoint ptr %26 to i64
  %62 = ptrtoint ptr %57 to i64
  %63 = sub i64 %61, %62
  %64 = sdiv exact i64 %63, 24
  %65 = trunc i64 %64 to i32
  %66 = add i32 %65, 1
  %67 = and i32 %66, %47
  %68 = zext i32 %67 to i64
  %69 = getelementptr inbounds nuw %struct.SDL_HashItem, ptr %48, i64 %68
  %70 = getelementptr inbounds nuw i8, ptr %69, i64 20
  %71 = load i32, ptr %70, align 4
  %72 = and i32 %71, 2147483647
  %.not2325.i = icmp eq i32 %72, 0
  br i1 %.not2325.i, label %delete_item.exit, label %.lr.ph.i

.lr.ph.i:                                         ; preds = %56, %.lr.ph.i
  %73 = phi ptr [ %84, %.lr.ph.i ], [ %69, %56 ]
  %74 = phi i32 [ %82, %.lr.ph.i ], [ %67, %56 ]
  %.02026.i = phi ptr [ %73, %.lr.ph.i ], [ %26, %56 ]
  tail call void @llvm.memcpy.p0.p0.i64(ptr noundef nonnull align 8 dereferenceable(24) %.02026.i, ptr noundef nonnull align 8 dereferenceable(24) %73, i64 24, i1 false)
  %75 = getelementptr inbounds nuw i8, ptr %.02026.i, i64 20
  %76 = load i32, ptr %75, align 4
  %77 = add i32 %76, 2147483647
  %78 = and i32 %77, 2147483647
  %79 = and i32 %76, -2147483648
  %80 = or disjoint i32 %78, %79
  store i32 %80, ptr %75, align 4
  %81 = add i32 %74, 1
  %82 = and i32 %81, %47
  %83 = zext i32 %82 to i64
  %84 = getelementptr inbounds nuw %struct.SDL_HashItem, ptr %48, i64 %83
  %85 = getelementptr inbounds nuw i8, ptr %84, i64 20
  %86 = load i32, ptr %85, align 4
  %87 = and i32 %86, 2147483647
  %.not23.i = icmp eq i32 %87, 0
  br i1 %.not23.i, label %delete_item.exit, label %.lr.ph.i

delete_item.exit:                                 ; preds = %.lr.ph.i, %56
  %.020.lcssa.i = phi ptr [ %26, %56 ], [ %73, %.lr.ph.i ]
  tail call void @llvm.memset.p0.i64(ptr noundef nonnull align 8 dereferenceable(24) %.020.lcssa.i, i8 0, i64 24, i1 false)
  br label %find_first_item.exit.thread

find_first_item.exit.thread:                      ; preds = %39, %35, %5, %delete_item.exit
  %.not1519 = phi i1 [ true, %delete_item.exit ], [ false, %5 ], [ false, %35 ], [ false, %39 ]
  %88 = load ptr, ptr %0, align 8
  tail call void @SDL_UnlockRWLock_REAL(ptr noundef %88) #10
  br label %89

89:                                               ; preds = %find_first_item.exit.thread, %3
  %.0 = phi i1 [ %.not1519, %find_first_item.exit.thread ], [ %4, %3 ]
  ret i1 %.0
}